Certificate:
    Data:
        Version: 3 (0x2)
        Serial Number:
            81:e3:f0:81:64:17:f1:94
    Signature Algorithm: sha256WithRSAEncryption
        Issuer: C=US, ST=North Carolina, L=Raleigh, O=Katello, OU=SomeOrgUnit, CN=gaatllstlitevm1.atni.local
        Validity
            Not Before: Jul 15 18:22:48 2022 GMT
            Not After : Jan 17 18:22:48 2038 GMT
        Subject: C=US, ST=North Carolina, L=Raleigh, O=Katello, OU=SomeOrgUnit, CN=gaatllstlitevm1.atni.local
        Subject Public Key Info:
            Public Key Algorithm: rsaEncryption
                Public-Key: (4096 bit)
                Modulus:
                    00:ab:fb:27:55:66:8a:2b:01:bd:ee:9a:0d:cd:f4:
                    11:35:51:ab:d6:f0:88:35:98:e6:71:fc:79:77:2d:
                    ae:1c:63:14:62:56:83:c4:a6:0b:7a:f7:75:82:58:
                    d5:d8:b2:57:29:55:78:d5:83:3d:5f:e7:65:8d:f1:
                    c1:24:5b:23:b4:b0:ca:9a:bd:fd:e5:11:73:2c:2e:
                    97:1b:bc:5f:d2:f9:b2:3d:4c:a3:4b:68:c3:f7:98:
                    fc:34:2f:74:cd:9d:7d:c3:62:e3:75:25:fe:df:94:
                    b6:42:2d:11:e2:36:9a:4b:a7:2f:71:da:0c:5d:0c:
                    f1:f7:f3:90:87:77:0b:68:02:0c:d9:cb:29:6c:eb:
                    bb:0d:5b:b1:34:7c:81:ff:8c:c1:01:71:17:b0:10:
                    6c:d5:3e:b5:7f:14:ed:43:ed:5b:2c:4e:e6:b7:c8:
                    e9:80:af:e6:1a:eb:91:88:87:25:f8:39:4e:37:e7:
                    2c:2e:18:57:e1:c8:4f:6e:ac:69:a1:22:e9:61:d3:
                    c7:09:f4:8f:de:2b:1b:c7:56:54:7c:b3:f7:86:24:
                    d5:a0:26:8a:e9:d8:15:a6:c4:ff:53:ff:8a:b7:c9:
                    5f:64:e6:f6:f4:53:71:0f:92:b7:54:7c:d6:41:ca:
                    52:c5:9c:15:51:51:20:ac:9f:6f:35:65:b8:3b:59:
                    64:7b:62:53:25:48:0d:3d:ab:e2:da:2d:8b:ec:95:
                    e2:85:9e:6c:bc:08:42:d1:f5:86:b4:7a:58:c7:1a:
                    1e:81:9d:e3:93:a0:3b:3e:bd:6d:a1:cb:3e:29:b7:
                    29:4d:97:62:59:e7:88:42:fb:c6:42:5a:0f:b6:69:
                    96:30:66:17:46:4b:2f:4d:a6:2d:e8:84:bf:59:f3:
                    84:b8:f7:c1:0f:3e:85:31:61:d3:da:35:58:a7:d2:
                    0d:61:6f:df:6b:ec:81:94:24:63:9c:0a:91:44:39:
                    7f:47:54:ae:e0:4e:28:a6:52:3b:31:06:df:1e:e4:
                    11:e5:c8:35:22:97:4a:b7:01:f0:3b:55:37:48:ee:
                    12:4a:64:17:a0:8b:83:1a:99:40:eb:16:ad:03:7f:
                    dd:ca:96:b3:a6:68:60:0c:68:6e:52:49:de:fa:27:
                    59:60:33:a0:78:29:e2:b7:f2:45:34:25:ea:77:07:
                    a2:d6:41:80:2e:05:be:19:fa:c4:41:7f:d7:1a:a6:
                    06:6b:37:3d:b4:f5:12:d8:8f:97:0a:07:b7:30:7f:
                    86:4c:ab:ac:df:f6:37:01:82:68:1a:f6:09:62:5d:
                    5d:cf:15:b3:fa:52:35:0e:09:b1:74:c5:4d:98:50:
                    13:78:8c:cb:75:62:27:52:b9:fc:28:a3:2f:ba:76:
                    23:c4:d9
                Exponent: 65537 (0x10001)
        X509v3 extensions:
            X509v3 Basic Constraints: 
                CA:TRUE
            X509v3 Key Usage: 
                Digital Signature, Key Encipherment, Certificate Sign, CRL Sign
            X509v3 Extended Key Usage: 
                TLS Web Server Authentication, TLS Web Client Authentication
            Netscape Cert Type: 
                SSL Server, SSL CA
            Netscape Comment: 
                Katello SSL Tool Generated Certificate
            X509v3 Subject Key Identifier: 
                5B:39:4B:90:B7:62:16:5C:22:10:6C:7C:CA:17:12:A0:B5:A6:34:B8
            X509v3 Authority Key Identifier: 
                keyid:5B:39:4B:90:B7:62:16:5C:22:10:6C:7C:CA:17:12:A0:B5:A6:34:B8
                DirName:/C=US/ST=North Carolina/L=Raleigh/O=Katello/OU=SomeOrgUnit/CN=gaatllstlitevm1.atni.local
                serial:81:E3:F0:81:64:17:F1:94

    Signature Algorithm: sha256WithRSAEncryption
         17:97:e3:63:1c:90:2b:4d:56:5e:f8:c7:6c:e4:1e:83:61:cd:
         d8:e0:da:72:7a:f8:89:35:b6:a2:0a:11:61:1e:f6:f3:a8:ca:
         08:c0:6c:c8:2c:df:b7:15:0b:9f:fc:aa:94:16:7d:54:fb:ff:
         8d:8d:9d:cb:b3:67:d5:a7:97:9c:e0:d1:76:f3:b7:ac:ba:da:
         4c:43:e0:18:16:19:85:5b:d9:32:f4:32:33:1c:0a:a0:44:80:
         77:b6:ac:f9:fd:bc:77:1f:c7:1d:62:54:19:41:c8:74:8c:bb:
         e2:1b:0f:43:ce:69:51:b9:ad:db:a1:1d:98:79:6d:de:56:33:
         8a:fa:e5:51:39:36:b7:20:6e:d4:3a:45:6f:cb:67:94:08:90:
         7a:ee:18:21:41:54:fb:5b:f1:dc:a2:86:28:d1:1f:5f:43:39:
         0a:a4:bb:13:03:64:10:82:78:93:72:a2:1d:f2:62:ec:ad:eb:
         e3:d6:80:23:a0:04:28:03:8e:b2:bc:af:ef:d5:fe:0c:a0:f9:
         70:49:54:34:18:6f:25:bd:91:9e:c3:4f:c2:a7:03:23:8d:04:
         70:b3:05:34:49:b0:d1:0b:ea:8a:f6:8a:87:e4:73:54:d3:48:
         50:8c:df:86:c7:95:a8:14:6d:5b:b6:9e:37:2d:85:da:d4:3e:
         af:73:f9:b1:2e:dc:95:0b:6f:a1:72:f8:77:84:f3:c0:d6:7b:
         cd:5b:66:e9:e3:70:a6:ac:a6:50:ce:77:e6:e6:95:28:51:37:
         b5:4f:5a:d8:c2:5b:ca:8d:f5:d5:b8:5e:1b:eb:d7:de:2a:ca:
         c1:ff:e5:7e:7f:1c:e7:e2:6c:37:d1:1c:0e:51:19:f6:9b:ad:
         9d:95:09:7c:de:37:5e:0f:e2:70:f4:6f:46:21:49:d6:99:c8:
         a4:de:b4:cf:54:d1:9c:1a:b7:40:de:df:9e:66:b6:97:68:cf:
         51:f5:88:f2:2a:6a:05:32:44:ba:09:9c:40:d9:9e:96:9d:74:
         fe:58:66:a2:95:72:32:92:7a:9f:96:71:c9:c2:67:63:43:74:
         48:05:7e:01:bd:8d:43:8e:35:d1:e6:41:62:3c:54:27:3e:89:
         ec:aa:22:df:df:bb:ad:f0:ef:57:87:f5:31:c5:82:d0:c7:1b:
         21:4e:4e:6b:6c:99:b3:d0:05:6f:5b:bd:f0:fa:d9:3f:09:43:
         0b:8d:f1:3a:f2:78:a7:54:a6:02:ea:de:76:59:29:f9:09:32:
         ef:d8:52:93:68:25:24:ea:1e:77:1b:5b:c2:f2:dd:91:ff:1c:
         e4:a4:b8:b5:62:a1:3f:cb:54:65:b4:42:d5:d2:30:38:96:f4:
         cb:1b:2e:b8:9a:9f:f8:06
-----BEGIN CERTIFICATE-----
MIIG9TCCBN2gAwIBAgIJAIHj8IFkF/GUMA0GCSqGSIb3DQEBCwUAMIGFMQswCQYD
VQQGEwJVUzEXMBUGA1UECAwOTm9ydGggQ2Fyb2xpbmExEDAOBgNVBAcMB1JhbGVp
Z2gxEDAOBgNVBAoMB0thdGVsbG8xFDASBgNVBAsMC1NvbWVPcmdVbml0MSMwIQYD
VQQDDBpnYWF0bGxzdGxpdGV2bTEuYXRuaS5sb2NhbDAeFw0yMjA3MTUxODIyNDha
Fw0zODAxMTcxODIyNDhaMIGFMQswCQYDVQQGEwJVUzEXMBUGA1UECAwOTm9ydGgg
Q2Fyb2xpbmExEDAOBgNVBAcMB1JhbGVpZ2gxEDAOBgNVBAoMB0thdGVsbG8xFDAS
BgNVBAsMC1NvbWVPcmdVbml0MSMwIQYDVQQDDBpnYWF0bGxzdGxpdGV2bTEuYXRu
aS5sb2NhbDCCAiIwDQYJKoZIhvcNAQEBBQADggIPADCCAgoCggIBAKv7J1VmiisB
ve6aDc30ETVRq9bwiDWY5nH8eXctrhxjFGJWg8SmC3r3dYJY1diyVylVeNWDPV/n
ZY3xwSRbI7Swypq9/eURcywulxu8X9L5sj1Mo0tow/eY/DQvdM2dfcNi43Ul/t+U
tkItEeI2mkunL3HaDF0M8ffzkId3C2gCDNnLKWzruw1bsTR8gf+MwQFxF7AQbNU+
tX8U7UPtWyxO5rfI6YCv5hrrkYiHJfg5TjfnLC4YV+HIT26saaEi6WHTxwn0j94r
G8dWVHyz94Yk1aAmiunYFabE/1P/irfJX2Tm9vRTcQ+St1R81kHKUsWcFVFRIKyf
bzVluDtZZHtiUyVIDT2r4toti+yV4oWebLwIQtH1hrR6WMcaHoGd45OgOz69baHL
Pim3KU2XYlnniEL7xkJaD7ZpljBmF0ZLL02mLeiEv1nzhLj3wQ8+hTFh09o1WKfS
DWFv32vsgZQkY5wKkUQ5f0dUruBOKKZSOzEG3x7kEeXINSKXSrcB8DtVN0juEkpk
F6CLgxqZQOsWrQN/3cqWs6ZoYAxoblJJ3vonWWAzoHgp4rfyRTQl6ncHotZBgC4F
vhn6xEF/1xqmBms3PbT1EtiPlwoHtzB/hkyrrN/2NwGCaBr2CWJdXc8Vs/pSNQ4J
sXTFTZhQE3iMy3ViJ1K5/CijL7p2I8TZAgMBAAGjggFkMIIBYDAMBgNVHRMEBTAD
AQH/MAsGA1UdDwQEAwIBpjAdBgNVHSUEFjAUBggrBgEFBQcDAQYIKwYBBQUHAwIw
EQYJYIZIAYb4QgEBBAQDAgJEMDUGCWCGSAGG+EIBDQQoFiZLYXRlbGxvIFNTTCBU
b29sIEdlbmVyYXRlZCBDZXJ0aWZpY2F0ZTAdBgNVHQ4EFgQUWzlLkLdiFlwiEGx8
yhcSoLWmNLgwgboGA1UdIwSBsjCBr4AUWzlLkLdiFlwiEGx8yhcSoLWmNLihgYuk
gYgwgYUxCzAJBgNVBAYTAlVTMRcwFQYDVQQIDA5Ob3J0aCBDYXJvbGluYTEQMA4G
A1UEBwwHUmFsZWlnaDEQMA4GA1UECgwHS2F0ZWxsbzEUMBIGA1UECwwLU29tZU9y
Z1VuaXQxIzAhBgNVBAMMGmdhYXRsbHN0bGl0ZXZtMS5hdG5pLmxvY2FsggkAgePw
gWQX8ZQwDQYJKoZIhvcNAQELBQADggIBABeX42MckCtNVl74x2zkHoNhzdjg2nJ6
+Ik1tqIKEWEe9vOoygjAbMgs37cVC5/8qpQWfVT7/42NncuzZ9Wnl5zg0Xbzt6y6
2kxD4BgWGYVb2TL0MjMcCqBEgHe2rPn9vHcfxx1iVBlByHSMu+IbD0POaVG5rduh
HZh5bd5WM4r65VE5NrcgbtQ6RW/LZ5QIkHruGCFBVPtb8dyihijRH19DOQqkuxMD
ZBCCeJNyoh3yYuyt6+PWgCOgBCgDjrK8r+/V/gyg+XBJVDQYbyW9kZ7DT8KnAyON
BHCzBTRJsNEL6or2iofkc1TTSFCM34bHlagUbVu2njcthdrUPq9z+bEu3JULb6Fy
+HeE88DWe81bZunjcKasplDOd+bmlShRN7VPWtjCW8qN9dW4Xhvr194qysH/5X5/
HOfibDfRHA5RGfabrZ2VCXzeN14P4nD0b0YhSdaZyKTetM9U0Zwat0De355mtpdo
z1H1iPIqagUyRLoJnEDZnpaddP5YZqKVcjKSep+WccnCZ2NDdEgFfgG9jUOONdHm
QWI8VCc+ieyqIt/fu63w71eH9THFgtDHGyFOTmtsmbPQBW9bvfD62T8JQwuN8Try
eKdUpgLq3nZZKfkJMu/YUpNoJSTqHncbW8Ly3ZH/HOSkuLVioT/LVGW0QtXSMDiW
9MsbLrian/gG
-----END CERTIFICATE-----
